target datalayout = "e-m:e-p270:32:32-p271:32:32-p272:64:64-i64:64-i128:128-f80:128-n8:16:32:64-S128"
target triple = "x86_64-pc-linux-gnu"

%struct.Vec_Int_t_ = type { i32, i32, ptr }
%struct.Gia_Man_t_ = type { ptr, ptr, i32, i32, i32, i32, ptr, ptr, i32, i32, i32, ptr, ptr, %struct.Vec_Int_t_, %struct.Vec_Int_t_, i32, i32, i32, %struct.Vec_Int_t_, ptr, ptr, ptr, i32, i32, i32, i32, ptr, ptr, ptr, ptr, ptr, i32, i32, ptr, i32, ptr, ptr, ptr, ptr, ptr, ptr, ptr, ptr, ptr, ptr, ptr, ptr, ptr, ptr, ptr, ptr, ptr, ptr, %struct.Vec_Int_t_, %struct.Vec_Int_t_, ptr, ptr, ptr, ptr, ptr, ptr, ptr, ptr, ptr, ptr, ptr, ptr, ptr, ptr, ptr, ptr, ptr, ptr, ptr, ptr, ptr, i32, float, float, ptr, ptr, i32, ptr, ptr, ptr, ptr, ptr, ptr, ptr, ptr, ptr, ptr, ptr, ptr, ptr, ptr, ptr, i64, i64, ptr, ptr, i32, i32, i32, i32, i32, i32, i32, i32, i32, i32, i32, i32, ptr, ptr, ptr, ptr, ptr, ptr, ptr, ptr, i32, i32, i32, ptr, i32, i32, ptr, ptr, ptr, ptr, ptr, ptr, i32, i32, ptr, %struct.Vec_Int_t_, %struct.Vec_Int_t_, %struct.Vec_Int_t_, ptr, ptr, ptr, i32, i32, i32, i32, ptr, ptr, ptr, ptr, ptr }

; Function Attrs: inlinehint nounwind uwtable
define internal i32 @Abc_LitNot(i32 noundef %0) #2 {
  %2 = alloca i32, align 4
  store i32 %0, ptr %2, align 4, !tbaa !8
  %3 = load i32, ptr %2, align 4, !tbaa !8
  %4 = xor i32 %3, 1
  ret i32 %4
}

; Function Attrs: inlinehint nounwind uwtable
define internal ptr @Vec_IntAlloc(i32 noundef %0) #2 {
  %2 = alloca i32, align 4
  %3 = alloca ptr, align 8
  store i32 %0, ptr %2, align 4, !tbaa !8
  call void @llvm.lifetime.start.p0(i64 8, ptr %3) #11
  %4 = call noalias ptr @malloc(i64 noundef 16) #13
  store ptr %4, ptr %3, align 8, !tbaa !10
  %5 = load i32, ptr %2, align 4, !tbaa !8
  %6 = icmp sgt i32 %5, 0
  br i1 %6, label %7, label %11

7:                                                ; preds = %1
  %8 = load i32, ptr %2, align 4, !tbaa !8
  %9 = icmp slt i32 %8, 16
  br i1 %9, label %10, label %11

10:                                               ; preds = %7
  store i32 16, ptr %2, align 4, !tbaa !8
  br label %11

11:                                               ; preds = %10, %7, %1
  %12 = load ptr, ptr %3, align 8, !tbaa !10
  %13 = getelementptr inbounds nuw %struct.Vec_Int_t_, ptr %12, i32 0, i32 1
  store i32 0, ptr %13, align 4, !tbaa !50
  %14 = load i32, ptr %2, align 4, !tbaa !8
  %15 = load ptr, ptr %3, align 8, !tbaa !10
  %16 = getelementptr inbounds nuw %struct.Vec_Int_t_, ptr %15, i32 0, i32 0
  store i32 %14, ptr %16, align 8, !tbaa !54
  %17 = load ptr, ptr %3, align 8, !tbaa !10
  %18 = getelementptr inbounds nuw %struct.Vec_Int_t_, ptr %17, i32 0, i32 0
  %19 = load i32, ptr %18, align 8, !tbaa !54
  %20 = icmp ne i32 %19, 0
  br i1 %20, label %21, label %28

21:                                               ; preds = %11
  %22 = load ptr, ptr %3, align 8, !tbaa !10
  %23 = getelementptr inbounds nuw %struct.Vec_Int_t_, ptr %22, i32 0, i32 0
  %24 = load i32, ptr %23, align 8, !tbaa !54
  %25 = sext i32 %24 to i64
  %26 = mul i64 4, %25
  %27 = call noalias ptr @malloc(i64 noundef %26) #13
  br label %29

28:                                               ; preds = %11
  br label %29

29:                                               ; preds = %28, %21
  %30 = phi ptr [ %27, %21 ], [ null, %28 ]
  %31 = load ptr, ptr %3, align 8, !tbaa !10
  %32 = getelementptr inbounds nuw %struct.Vec_Int_t_, ptr %31, i32 0, i32 2
  store ptr %30, ptr %32, align 8, !tbaa !16
  %33 = load ptr, ptr %3, align 8, !tbaa !10
  call void @llvm.lifetime.end.p0(i64 8, ptr %3) #11
  ret ptr %33
}

; Function Attrs: inlinehint nounwind uwtable
define internal void @Vec_IntFree(ptr noundef %0) #2 {
  %2 = alloca ptr, align 8
  store ptr %0, ptr %2, align 8, !tbaa !10
  %3 = load ptr, ptr %2, align 8, !tbaa !10
  %4 = getelementptr inbounds nuw %struct.Vec_Int_t_, ptr %3, i32 0, i32 2
  %5 = load ptr, ptr %4, align 8, !tbaa !16
  %6 = icmp ne ptr %5, null
  br i1 %6, label %7, label %13

7:                                                ; preds = %1
  %8 = load ptr, ptr %2, align 8, !tbaa !10
  %9 = getelementptr inbounds nuw %struct.Vec_Int_t_, ptr %8, i32 0, i32 2
  %10 = load ptr, ptr %9, align 8, !tbaa !16
  call void @free(ptr noundef %10) #11
  %11 = load ptr, ptr %2, align 8, !tbaa !10
  %12 = getelementptr inbounds nuw %struct.Vec_Int_t_, ptr %11, i32 0, i32 2
  store ptr null, ptr %12, align 8, !tbaa !16
  br label %14

13:                                               ; preds = %1
  br label %14

14:                                               ; preds = %13, %7
  %15 = load ptr, ptr %2, align 8, !tbaa !10
  %16 = icmp ne ptr %15, null
  br i1 %16, label %17, label %19

17:                                               ; preds = %14
  %18 = load ptr, ptr %2, align 8, !tbaa !10
  call void @free(ptr noundef %18) #11
  store ptr null, ptr %2, align 8, !tbaa !10
  br label %20

19:                                               ; preds = %14
  br label %20

20:                                               ; preds = %19, %17
  ret void
}

; Function Attrs: inlinehint nounwind uwtable
define internal void @Vec_IntWriteEntry(ptr noundef %0, i32 noundef %1, i32 noundef %2) #2 {
  %4 = alloca ptr, align 8
  %5 = alloca i32, align 4
  %6 = alloca i32, align 4
  store ptr %0, ptr %4, align 8, !tbaa !10
  store i32 %1, ptr %5, align 4, !tbaa !8
  store i32 %2, ptr %6, align 4, !tbaa !8
  %7 = load i32, ptr %6, align 4, !tbaa !8
  %8 = load ptr, ptr %4, align 8, !tbaa !10
  %9 = getelementptr inbounds nuw %struct.Vec_Int_t_, ptr %8, i32 0, i32 2
  %10 = load ptr, ptr %9, align 8, !tbaa !16
  %11 = load i32, ptr %5, align 4, !tbaa !8
  %12 = sext i32 %11 to i64
  %13 = getelementptr inbounds i32, ptr %10, i64 %12
  store i32 %7, ptr %13, align 4, !tbaa !8
  ret void
}

; Function Attrs: inlinehint nounwind uwtable
define internal i32 @Gia_ManAppendOr(ptr noundef %0, i32 noundef %1, i32 noundef %2) #2 {
  %4 = alloca ptr, align 8
  %5 = alloca i32, align 4
  %6 = alloca i32, align 4
  store ptr %0, ptr %4, align 8, !tbaa !3
  store i32 %1, ptr %5, align 4, !tbaa !8
  store i32 %2, ptr %6, align 4, !tbaa !8
  %7 = load ptr, ptr %4, align 8, !tbaa !3
  %8 = load i32, ptr %5, align 4, !tbaa !8
  %9 = call i32 @Abc_LitNot(i32 noundef %8)
  %10 = load i32, ptr %6, align 4, !tbaa !8
  %11 = call i32 @Abc_LitNot(i32 noundef %10)
  %12 = call i32 @Gia_ManAppendAnd(ptr noundef %7, i32 noundef %9, i32 noundef %11)
  %13 = call i32 @Abc_LitNot(i32 noundef %12)
  ret i32 %13
}

; Function Attrs: inlinehint nounwind uwtable
define internal i32 @Vec_IntEntry(ptr noundef %0, i32 noundef %1) #2 {
  %3 = alloca ptr, align 8
  %4 = alloca i32, align 4
  store ptr %0, ptr %3, align 8, !tbaa !10
  store i32 %1, ptr %4, align 4, !tbaa !8
  %5 = load ptr, ptr %3, align 8, !tbaa !10
  %6 = getelementptr inbounds nuw %struct.Vec_Int_t_, ptr %5, i32 0, i32 2
  %7 = load ptr, ptr %6, align 8, !tbaa !16
  %8 = load i32, ptr %4, align 4, !tbaa !8
  %9 = sext i32 %8 to i64
  %10 = getelementptr inbounds i32, ptr %7, i64 %9
  %11 = load i32, ptr %10, align 4, !tbaa !8
  ret i32 %11
}

; Function Attrs: inlinehint nounwind uwtable
define internal i32 @Vec_IntSize(ptr noundef %0) #2 {
  %2 = alloca ptr, align 8
  store ptr %0, ptr %2, align 8, !tbaa !10
  %3 = load ptr, ptr %2, align 8, !tbaa !10
  %4 = getelementptr inbounds nuw %struct.Vec_Int_t_, ptr %3, i32 0, i32 1
  %5 = load i32, ptr %4, align 4, !tbaa !50
  ret i32 %5
}

; Function Attrs: inlinehint nounwind uwtable
define internal ptr @Vec_IntStart(i32 noundef %0) #2 {
  %2 = alloca i32, align 4
  %3 = alloca ptr, align 8
  store i32 %0, ptr %2, align 4, !tbaa !8
  call void @llvm.lifetime.start.p0(i64 8, ptr %3) #11
  %4 = load i32, ptr %2, align 4, !tbaa !8
  %5 = call ptr @Vec_IntAlloc(i32 noundef %4)
  store ptr %5, ptr %3, align 8, !tbaa !10
  %6 = load i32, ptr %2, align 4, !tbaa !8
  %7 = load ptr, ptr %3, align 8, !tbaa !10
  %8 = getelementptr inbounds nuw %struct.Vec_Int_t_, ptr %7, i32 0, i32 1
  store i32 %6, ptr %8, align 4, !tbaa !50
  %9 = load ptr, ptr %3, align 8, !tbaa !10
  %10 = getelementptr inbounds nuw %struct.Vec_Int_t_, ptr %9, i32 0, i32 2
  %11 = load ptr, ptr %10, align 8, !tbaa !16
  %12 = icmp ne ptr %11, null
  br i1 %12, label %13, label %20

13:                                               ; preds = %1
  %14 = load ptr, ptr %3, align 8, !tbaa !10
  %15 = getelementptr inbounds nuw %struct.Vec_Int_t_, ptr %14, i32 0, i32 2
  %16 = load ptr, ptr %15, align 8, !tbaa !16
  %17 = load i32, ptr %2, align 4, !tbaa !8
  %18 = sext i32 %17 to i64
  %19 = mul i64 4, %18
  call void @llvm.memset.p0.i64(ptr align 4 %16, i8 0, i64 %19, i1 false)
  br label %20

20:                                               ; preds = %13, %1
  %21 = load ptr, ptr %3, align 8, !tbaa !10
  call void @llvm.lifetime.end.p0(i64 8, ptr %3) #11
  ret ptr %21
}

; Function Attrs: inlinehint nounwind uwtable
define internal i32 @Gia_ManObjNum(ptr noundef %0) #2 {
  %2 = alloca ptr, align 8
  store ptr %0, ptr %2, align 8, !tbaa !3
  %3 = load ptr, ptr %2, align 8, !tbaa !3
  %4 = getelementptr inbounds nuw %struct.Gia_Man_t_, ptr %3, i32 0, i32 4
  %5 = load i32, ptr %4, align 8, !tbaa !48
  ret i32 %5
}

; Function Attrs: nounwind uwtable
define ptr @Acec_DetectXorBuildNew(ptr noundef %0, ptr noundef %1) #0 {
  %3 = alloca ptr, align 8
  %4 = alloca ptr, align 8
  %5 = alloca ptr, align 8
  %6 = alloca i32, align 4
  %7 = alloca i32, align 4
  %8 = alloca i32, align 4
  %9 = alloca i32, align 4
  %10 = alloca i32, align 4
  %11 = alloca [3 x i32], align 4
  %12 = alloca ptr, align 8
  store ptr %0, ptr %3, align 8, !tbaa !3
  store ptr %1, ptr %4, align 8, !tbaa !10
  call void @llvm.lifetime.start.p0(i64 8, ptr %5) #11
  call void @llvm.lifetime.start.p0(i64 4, ptr %6) #11
  call void @llvm.lifetime.start.p0(i64 4, ptr %7) #11
  call void @llvm.lifetime.start.p0(i64 4, ptr %8) #11
  call void @llvm.lifetime.start.p0(i64 4, ptr %9) #11
  call void @llvm.lifetime.start.p0(i64 4, ptr %10) #11
  call void @llvm.lifetime.start.p0(i64 12, ptr %11) #11
  call void @llvm.lifetime.start.p0(i64 8, ptr %12) #11
  %13 = load ptr, ptr %3, align 8, !tbaa !3
  %14 = call i32 @Gia_ManObjNum(ptr noundef %13)
  %15 = call ptr @Vec_IntStart(i32 noundef %14)
  store ptr %15, ptr %12, align 8, !tbaa !10
  store i32 0, ptr %6, align 4, !tbaa !8
  br label %16

16:                                               ; preds = %89, %2
  %17 = load i32, ptr %6, align 4, !tbaa !8
  %18 = mul nsw i32 4, %17
  %19 = load ptr, ptr %4, align 8, !tbaa !10
  %20 = call i32 @Vec_IntSize(ptr noundef %19)
  %21 = icmp slt i32 %18, %20
  br i1 %21, label %22, label %92

22:                                               ; preds = %16
  %23 = load ptr, ptr %3, align 8, !tbaa !3
  %24 = load ptr, ptr %4, align 8, !tbaa !10
  %25 = load i32, ptr %6, align 4, !tbaa !8
  %26 = mul nsw i32 4, %25
  %27 = call i32 @Vec_IntEntry(ptr noundef %24, i32 noundef %26)
  %28 = load ptr, ptr %4, align 8, !tbaa !10
  %29 = load i32, ptr %6, align 4, !tbaa !8
  %30 = mul nsw i32 4, %29
  %31 = add nsw i32 %30, 1
  %32 = call i32 @Vec_IntEntry(ptr noundef %28, i32 noundef %31)
  %33 = call i32 @Acec_DetectLitPolarity(ptr noundef %23, i32 noundef %27, i32 noundef %32)
  %34 = getelementptr inbounds [3 x i32], ptr %11, i64 0, i64 0
  store i32 %33, ptr %34, align 4, !tbaa !8
  store i32 1, ptr %7, align 4, !tbaa !8
  br label %35

35:                                               ; preds = %55, %22
  %36 = load i32, ptr %7, align 4, !tbaa !8
  %37 = icmp slt i32 %36, 3
  br i1 %37, label %38, label %58

38:                                               ; preds = %35
  %39 = load ptr, ptr %3, align 8, !tbaa !3
  %40 = load ptr, ptr %4, align 8, !tbaa !10
  %41 = load i32, ptr %6, align 4, !tbaa !8
  %42 = mul nsw i32 4, %41
  %43 = call i32 @Vec_IntEntry(ptr noundef %40, i32 noundef %42)
  %44 = load ptr, ptr %4, align 8, !tbaa !10
  %45 = load i32, ptr %6, align 4, !tbaa !8
  %46 = mul nsw i32 4, %45
  %47 = load i32, ptr %7, align 4, !tbaa !8
  %48 = add nsw i32 %46, %47
  %49 = add nsw i32 %48, 1
  %50 = call i32 @Vec_IntEntry(ptr noundef %44, i32 noundef %49)
  %51 = call i32 @Acec_DetectLitPolarity(ptr noundef %39, i32 noundef %43, i32 noundef %50)
  %52 = load i32, ptr %7, align 4, !tbaa !8
  %53 = sext i32 %52 to i64
  %54 = getelementptr inbounds [3 x i32], ptr %11, i64 0, i64 %53
  store i32 %51, ptr %54, align 4, !tbaa !8
  br label %55

55:                                               ; preds = %38
  %56 = load i32, ptr %7, align 4, !tbaa !8
  %57 = add nsw i32 %56, 1
  store i32 %57, ptr %7, align 4, !tbaa !8
  br label %35, !llvm.loop !66

58:                                               ; preds = %35
  %59 = load ptr, ptr %3, align 8, !tbaa !3
  %60 = getelementptr inbounds [3 x i32], ptr %11, i64 0, i64 1
  %61 = load i32, ptr %60, align 4, !tbaa !8
  %62 = getelementptr inbounds [3 x i32], ptr %11, i64 0, i64 2
  %63 = load i32, ptr %62, align 4, !tbaa !8
  %64 = call i32 @Gia_ManAppendOr(ptr noundef %59, i32 noundef %61, i32 noundef %63)
  store i32 %64, ptr %8, align 4, !tbaa !8
  %65 = load ptr, ptr %3, align 8, !tbaa !3
  %66 = getelementptr inbounds [3 x i32], ptr %11, i64 0, i64 0
  %67 = load i32, ptr %66, align 4, !tbaa !8
  %68 = load i32, ptr %8, align 4, !tbaa !8
  %69 = call i32 @Gia_ManAppendAnd(ptr noundef %65, i32 noundef %67, i32 noundef %68)
  store i32 %69, ptr %9, align 4, !tbaa !8
  %70 = load ptr, ptr %3, align 8, !tbaa !3
  %71 = getelementptr inbounds [3 x i32], ptr %11, i64 0, i64 1
  %72 = load i32, ptr %71, align 4, !tbaa !8
  %73 = getelementptr inbounds [3 x i32], ptr %11, i64 0, i64 2
  %74 = load i32, ptr %73, align 4, !tbaa !8
  %75 = call i32 @Gia_ManAppendAnd(ptr noundef %70, i32 noundef %72, i32 noundef %74)
  store i32 %75, ptr %10, align 4, !tbaa !8
  %76 = load ptr, ptr %3, align 8, !tbaa !3
  %77 = load i32, ptr %9, align 4, !tbaa !8
  %78 = load i32, ptr %10, align 4, !tbaa !8
  %79 = call i32 @Gia_ManAppendOr(ptr noundef %76, i32 noundef %77, i32 noundef %78)
  %80 = getelementptr inbounds [3 x i32], ptr %11, i64 0, i64 0
  store i32 %79, ptr %80, align 4, !tbaa !8
  %81 = load ptr, ptr %12, align 8, !tbaa !10
  %82 = load ptr, ptr %4, align 8, !tbaa !10
  %83 = load i32, ptr %6, align 4, !tbaa !8
  %84 = mul nsw i32 4, %83
  %85 = add nsw i32 %84, 1
  %86 = call i32 @Vec_IntEntry(ptr noundef %82, i32 noundef %85)
  %87 = getelementptr inbounds [3 x i32], ptr %11, i64 0, i64 0
  %88 = load i32, ptr %87, align 4, !tbaa !8
  call void @Vec_IntWriteEntry(ptr noundef %81, i32 noundef %86, i32 noundef %88)
  br label %89

89:                                               ; preds = %58
  %90 = load i32, ptr %6, align 4, !tbaa !8
  %91 = add nsw i32 %90, 1
  store i32 %91, ptr %6, align 4, !tbaa !8
  br label %16, !llvm.loop !67

92:                                               ; preds = %16
  %93 = load ptr, ptr %3, align 8, !tbaa !3
  %94 = load ptr, ptr %12, align 8, !tbaa !10
  %95 = call ptr @Acec_ManDerive(ptr noundef %93, ptr noundef %94)
  store ptr %95, ptr %5, align 8, !tbaa !3
  %96 = load ptr, ptr %12, align 8, !tbaa !10
  call void @Vec_IntFree(ptr noundef %96)
  %97 = load ptr, ptr %5, align 8, !tbaa !3
  call void @llvm.lifetime.end.p0(i64 8, ptr %12) #11
  call void @llvm.lifetime.end.p0(i64 12, ptr %11) #11
  call void @llvm.lifetime.end.p0(i64 4, ptr %10) #11
  call void @llvm.lifetime.end.p0(i64 4, ptr %9) #11
  call void @llvm.lifetime.end.p0(i64 4, ptr %8) #11
  call void @llvm.lifetime.end.p0(i64 4, ptr %7) #11
  call void @llvm.lifetime.end.p0(i64 4, ptr %6) #11
  call void @llvm.lifetime.end.p0(i64 8, ptr %5) #11
  ret ptr %97
}