; Function Attrs: nounwind uwtable
define ptr @Acec_DetectXorBuildNew(ptr noundef %0, ptr noundef readonly captures(none) %1) local_unnamed_addr #0 {
  %3 = alloca [3 x i32], align 4
  call void @llvm.lifetime.start.p0(i64 12, ptr nonnull %3) #19
  %4 = getelementptr i8, ptr %0, i64 24
  %.val38 = load i32, ptr %4, align 8, !tbaa !37
  %5 = tail call noalias dereferenceable_or_null(16) ptr @malloc(i64 noundef 16) #21
  %6 = add i32 %.val38, -1
  %or.cond.i.i = icmp ult i32 %6, 15
  %spec.store.select.i.i = select i1 %or.cond.i.i, i32 16, i32 %.val38
  %7 = getelementptr inbounds nuw i8, ptr %5, i64 4
  store i32 %spec.store.select.i.i, ptr %5, align 8, !tbaa !48
  %.not.i.i = icmp eq i32 %spec.store.select.i.i, 0
  br i1 %.not.i.i, label %Vec_IntAlloc.exit.thread.i, label %Vec_IntAlloc.exit.i

Vec_IntAlloc.exit.thread.i:                       ; preds = %2
  %8 = getelementptr inbounds nuw i8, ptr %5, i64 8
  store ptr null, ptr %8, align 8, !tbaa !3
  store i32 %.val38, ptr %7, align 4, !tbaa !41
  br label %Vec_IntStart.exit

Vec_IntAlloc.exit.i:                              ; preds = %2
  %9 = sext i32 %spec.store.select.i.i to i64
  %10 = shl nsw i64 %9, 2
  %11 = tail call noalias ptr @malloc(i64 noundef %10) #21
  %12 = getelementptr inbounds nuw i8, ptr %5, i64 8
  store ptr %11, ptr %12, align 8, !tbaa !3
  store i32 %.val38, ptr %7, align 4, !tbaa !41
  %.not.i = icmp eq ptr %11, null
  br i1 %.not.i, label %Vec_IntStart.exit, label %13

13:                                               ; preds = %Vec_IntAlloc.exit.i
  %14 = sext i32 %.val38 to i64
  %15 = shl nsw i64 %14, 2
  tail call void @llvm.memset.p0.i64(ptr nonnull align 4 %11, i8 0, i64 %15, i1 false)
  br label %Vec_IntStart.exit

Vec_IntStart.exit:                                ; preds = %Vec_IntAlloc.exit.thread.i, %Vec_IntAlloc.exit.i, %13
  %.val39 = phi ptr [ null, %Vec_IntAlloc.exit.thread.i ], [ null, %Vec_IntAlloc.exit.i ], [ %11, %13 ]
  %16 = getelementptr i8, ptr %1, i64 4
  %.val3742 = load i32, ptr %16, align 4, !tbaa !41
  %17 = icmp sgt i32 %.val3742, 0
  br i1 %17, label %.lr.ph, label %._crit_edge

.lr.ph:                                           ; preds = %Vec_IntStart.exit
  %18 = getelementptr i8, ptr %1, i64 8
  %19 = getelementptr inbounds nuw i8, ptr %3, i64 4
  %20 = getelementptr inbounds nuw i8, ptr %3, i64 8
  %.val36.pre = load ptr, ptr %18, align 8, !tbaa !3
  br label %21

21:                                               ; preds = %.lr.ph, %40
  %.val36 = phi ptr [ %.val36.pre, %.lr.ph ], [ %.val, %40 ]
  %indvars.iv46 = phi i64 [ 0, %.lr.ph ], [ %indvars.iv.next47, %40 ]
  %22 = phi i32 [ 0, %.lr.ph ], [ %58, %40 ]
  %23 = zext i32 %22 to i64
  %24 = getelementptr inbounds nuw i32, ptr %.val36, i64 %23
  %25 = load i32, ptr %24, align 4, !tbaa !10
  %26 = or disjoint i32 %22, 1
  %27 = zext nneg i32 %26 to i64
  %28 = getelementptr inbounds nuw i32, ptr %.val36, i64 %27
  %29 = load i32, ptr %28, align 4, !tbaa !10
  %30 = tail call i32 @Acec_DetectLitPolarity(ptr noundef %0, i32 noundef %25, i32 noundef %29)
  br label %31

31:                                               ; preds = %21, %31
  %indvars.iv = phi i64 [ 1, %21 ], [ %indvars.iv.next, %31 ]
  %.val34 = load ptr, ptr %18, align 8, !tbaa !3
  %32 = getelementptr inbounds nuw i32, ptr %.val34, i64 %23
  %33 = load i32, ptr %32, align 4, !tbaa !10
  %34 = or disjoint i64 %indvars.iv, %23
  %35 = getelementptr inbounds nuw i32, ptr %.val34, i64 %34
  %36 = getelementptr inbounds nuw i8, ptr %35, i64 4
  %37 = load i32, ptr %36, align 4, !tbaa !10
  %38 = tail call i32 @Acec_DetectLitPolarity(ptr noundef %0, i32 noundef %33, i32 noundef %37)
  %39 = getelementptr inbounds nuw [3 x i32], ptr %3, i64 0, i64 %indvars.iv
  store i32 %38, ptr %39, align 4, !tbaa !10
  %indvars.iv.next = add nuw nsw i64 %indvars.iv, 1
  %exitcond.not = icmp eq i64 %indvars.iv.next, 3
  br i1 %exitcond.not, label %40, label %31, !llvm.loop !61

40:                                               ; preds = %31
  %41 = load i32, ptr %19, align 4, !tbaa !10
  %42 = load i32, ptr %20, align 4, !tbaa !10
  %43 = xor i32 %41, 1
  %44 = xor i32 %42, 1
  %45 = tail call fastcc i32 @Gia_ManAppendAnd(ptr noundef %0, i32 noundef %43, i32 noundef %44)
  %46 = xor i32 %45, 1
  %47 = tail call fastcc i32 @Gia_ManAppendAnd(ptr noundef %0, i32 noundef %30, i32 noundef %46)
  %48 = tail call fastcc i32 @Gia_ManAppendAnd(ptr noundef %0, i32 noundef %41, i32 noundef %42)
  %49 = xor i32 %47, 1
  %50 = xor i32 %48, 1
  %51 = tail call fastcc i32 @Gia_ManAppendAnd(ptr noundef %0, i32 noundef %49, i32 noundef %50)
  %52 = xor i32 %51, 1
  %.val = load ptr, ptr %18, align 8, !tbaa !3
  %53 = getelementptr inbounds nuw i32, ptr %.val, i64 %27
  %54 = load i32, ptr %53, align 4, !tbaa !10
  %55 = sext i32 %54 to i64
  %56 = getelementptr inbounds i32, ptr %.val39, i64 %55
  store i32 %52, ptr %56, align 4, !tbaa !10
  %indvars.iv.next47 = add nuw nsw i64 %indvars.iv46, 1
  %57 = trunc nuw i64 %indvars.iv.next47 to i32
  %58 = shl nsw i32 %57, 2
  %.val37 = load i32, ptr %16, align 4, !tbaa !41
  %59 = icmp slt i32 %58, %.val37
  br i1 %59, label %21, label %._crit_edge, !llvm.loop !62

._crit_edge:                                      ; preds = %40, %Vec_IntStart.exit
  %60 = tail call ptr @Acec_ManDerive(ptr noundef %0, ptr noundef nonnull %5)
  %61 = getelementptr inbounds nuw i8, ptr %5, i64 8
  %62 = load ptr, ptr %61, align 8, !tbaa !3
  %.not.i40 = icmp eq ptr %62, null
  br i1 %.not.i40, label %Vec_IntFree.exit, label %63

63:                                               ; preds = %._crit_edge
  tail call void @free(ptr noundef nonnull %62) #19
  br label %Vec_IntFree.exit

Vec_IntFree.exit:                                 ; preds = %._crit_edge, %63
  tail call void @free(ptr noundef nonnull %5) #19
  call void @llvm.lifetime.end.p0(i64 12, ptr nonnull %3) #19
  ret ptr %60
}